target datalayout = "e-m:e-p270:32:32-p271:32:32-p272:64:64-i64:64-i128:128-f80:128-n8:16:32:64-S128"
target triple = "x86_64-pc-linux-gnu"

%struct.AVIOContext = type { ptr, ptr, i32, ptr, ptr, ptr, ptr, ptr, ptr, i64, i32, i32, i32, i32, i32, i64, ptr, ptr, ptr, ptr, i32, i32, ptr, ptr, ptr, i32, ptr, i64, i64 }

; Function Attrs: nounwind uwtable
define i32 @avio_r8(ptr noundef %0) #0 {
  %2 = alloca i32, align 4
  %3 = alloca ptr, align 8
  store ptr %0, ptr %3, align 8, !tbaa !14
  %4 = load ptr, ptr %3, align 8, !tbaa !14
  %5 = getelementptr inbounds nuw %struct.AVIOContext, ptr %4, i32 0, i32 3
  %6 = load ptr, ptr %5, align 8, !tbaa !23
  %7 = load ptr, ptr %3, align 8, !tbaa !14
  %8 = getelementptr inbounds nuw %struct.AVIOContext, ptr %7, i32 0, i32 4
  %9 = load ptr, ptr %8, align 8, !tbaa !38
  %10 = icmp uge ptr %6, %9
  br i1 %10, label %11, label %13

11:                                               ; preds = %1
  %12 = load ptr, ptr %3, align 8, !tbaa !14
  call void @fill_buffer(ptr noundef %12)
  br label %13

13:                                               ; preds = %11, %1
  %14 = load ptr, ptr %3, align 8, !tbaa !14
  %15 = getelementptr inbounds nuw %struct.AVIOContext, ptr %14, i32 0, i32 3
  %16 = load ptr, ptr %15, align 8, !tbaa !23
  %17 = load ptr, ptr %3, align 8, !tbaa !14
  %18 = getelementptr inbounds nuw %struct.AVIOContext, ptr %17, i32 0, i32 4
  %19 = load ptr, ptr %18, align 8, !tbaa !38
  %20 = icmp ult ptr %16, %19
  br i1 %20, label %21, label %28

21:                                               ; preds = %13
  %22 = load ptr, ptr %3, align 8, !tbaa !14
  %23 = getelementptr inbounds nuw %struct.AVIOContext, ptr %22, i32 0, i32 3
  %24 = load ptr, ptr %23, align 8, !tbaa !23
  %25 = getelementptr inbounds nuw i8, ptr %24, i32 1
  store ptr %25, ptr %23, align 8, !tbaa !23
  %26 = load i8, ptr %24, align 1, !tbaa !50
  %27 = zext i8 %26 to i32
  store i32 %27, ptr %2, align 4
  br label %29

28:                                               ; preds = %13
  store i32 0, ptr %2, align 4
  br label %29

29:                                               ; preds = %28, %21
  %30 = load i32, ptr %2, align 4
  ret i32 %30
}

; Function Attrs: nounwind uwtable
define i32 @avio_get_str(ptr noundef %0, i32 noundef %1, ptr noundef %2, i32 noundef %3) #0 {
  %5 = alloca i32, align 4
  %6 = alloca ptr, align 8
  %7 = alloca i32, align 4
  %8 = alloca ptr, align 8
  %9 = alloca i32, align 4
  %10 = alloca i32, align 4
  %11 = alloca i32, align 4
  store ptr %0, ptr %6, align 8, !tbaa !14
  store i32 %1, ptr %7, align 4, !tbaa !11
  store ptr %2, ptr %8, align 8, !tbaa !9
  store i32 %3, ptr %9, align 4, !tbaa !11
  call void @llvm.lifetime.start.p0(i64 4, ptr %10) #12
  %12 = load i32, ptr %9, align 4, !tbaa !11
  %13 = icmp sle i32 %12, 0
  br i1 %13, label %14, label %15

14:                                               ; preds = %4
  store i32 -22, ptr %5, align 4
  store i32 1, ptr %11, align 4
  br label %69

15:                                               ; preds = %4
  %16 = load i32, ptr %9, align 4, !tbaa !11
  %17 = sub nsw i32 %16, 1
  %18 = load i32, ptr %7, align 4, !tbaa !11
  %19 = icmp sgt i32 %17, %18
  br i1 %19, label %20, label %22

20:                                               ; preds = %15
  %21 = load i32, ptr %7, align 4, !tbaa !11
  br label %25

22:                                               ; preds = %15
  %23 = load i32, ptr %9, align 4, !tbaa !11
  %24 = sub nsw i32 %23, 1
  br label %25

25:                                               ; preds = %22, %20
  %26 = phi i32 [ %21, %20 ], [ %24, %22 ]
  store i32 %26, ptr %9, align 4, !tbaa !11
  store i32 0, ptr %10, align 4, !tbaa !11
  br label %27

27:                                               ; preds = %44, %25
  %28 = load i32, ptr %10, align 4, !tbaa !11
  %29 = load i32, ptr %9, align 4, !tbaa !11
  %30 = icmp slt i32 %28, %29
  br i1 %30, label %31, label %47

31:                                               ; preds = %27
  %32 = load ptr, ptr %6, align 8, !tbaa !14
  %33 = call i32 @avio_r8(ptr noundef %32)
  %34 = trunc i32 %33 to i8
  %35 = load ptr, ptr %8, align 8, !tbaa !9
  %36 = load i32, ptr %10, align 4, !tbaa !11
  %37 = sext i32 %36 to i64
  %38 = getelementptr inbounds i8, ptr %35, i64 %37
  store i8 %34, ptr %38, align 1, !tbaa !50
  %39 = icmp ne i8 %34, 0
  br i1 %39, label %43, label %40

40:                                               ; preds = %31
  %41 = load i32, ptr %10, align 4, !tbaa !11
  %42 = add nsw i32 %41, 1
  store i32 %42, ptr %5, align 4
  store i32 1, ptr %11, align 4
  br label %69

43:                                               ; preds = %31
  br label %44

44:                                               ; preds = %43
  %45 = load i32, ptr %10, align 4, !tbaa !11
  %46 = add nsw i32 %45, 1
  store i32 %46, ptr %10, align 4, !tbaa !11
  br label %27, !llvm.loop !78

47:                                               ; preds = %27
  %48 = load ptr, ptr %8, align 8, !tbaa !9
  %49 = load i32, ptr %10, align 4, !tbaa !11
  %50 = sext i32 %49 to i64
  %51 = getelementptr inbounds i8, ptr %48, i64 %50
  store i8 0, ptr %51, align 1, !tbaa !50
  br label %52

52:                                               ; preds = %64, %47
  %53 = load i32, ptr %10, align 4, !tbaa !11
  %54 = load i32, ptr %7, align 4, !tbaa !11
  %55 = icmp slt i32 %53, %54
  br i1 %55, label %56, label %67

56:                                               ; preds = %52
  %57 = load ptr, ptr %6, align 8, !tbaa !14
  %58 = call i32 @avio_r8(ptr noundef %57)
  %59 = icmp ne i32 %58, 0
  br i1 %59, label %63, label %60

60:                                               ; preds = %56
  %61 = load i32, ptr %10, align 4, !tbaa !11
  %62 = add nsw i32 %61, 1
  store i32 %62, ptr %5, align 4
  store i32 1, ptr %11, align 4
  br label %69

63:                                               ; preds = %56
  br label %64

64:                                               ; preds = %63
  %65 = load i32, ptr %10, align 4, !tbaa !11
  %66 = add nsw i32 %65, 1
  store i32 %66, ptr %10, align 4, !tbaa !11
  br label %52, !llvm.loop !79

67:                                               ; preds = %52
  %68 = load i32, ptr %7, align 4, !tbaa !11
  store i32 %68, ptr %5, align 4
  store i32 1, ptr %11, align 4
  br label %69

69:                                               ; preds = %67, %60, %40, %14
  call void @llvm.lifetime.end.p0(i64 4, ptr %10) #12
  %70 = load i32, ptr %5, align 4
  ret i32 %70
}