; Function Attrs: nounwind uwtable
define i32 @avio_get_str(ptr noundef %0, i32 noundef %1, ptr noundef writeonly captures(none) %2, i32 noundef %3) local_unnamed_addr #3 {
  %5 = icmp slt i32 %3, 1
  br i1 %5, label %.loopexit, label %6

6:                                                ; preds = %4
  %7 = add nsw i32 %3, -1
  %8 = tail call i32 @llvm.smin.i32(i32 %7, i32 %1)
  %9 = icmp sgt i32 %8, 0
  br i1 %9, label %.lr.ph, label %._crit_edge

.lr.ph:                                           ; preds = %6
  %10 = getelementptr inbounds nuw i8, ptr %0, i64 24
  %11 = getelementptr inbounds nuw i8, ptr %0, i64 32
  %wide.trip.count = zext nneg i32 %8 to i64
  br label %12

12:                                               ; preds = %.lr.ph, %26
  %indvars.iv = phi i64 [ 0, %.lr.ph ], [ %indvars.iv.next, %26 ]
  %13 = load ptr, ptr %10, align 8, !tbaa !16
  %14 = load ptr, ptr %11, align 8, !tbaa !19
  %.not.i = icmp ult ptr %13, %14
  br i1 %.not.i, label %16, label %15

15:                                               ; preds = %12
  tail call fastcc void @fill_buffer(ptr noundef nonnull %0)
  %.pre.i = load ptr, ptr %10, align 8, !tbaa !16
  %.pre7.i = load ptr, ptr %11, align 8, !tbaa !19
  br label %16

16:                                               ; preds = %15, %12
  %17 = phi ptr [ %.pre7.i, %15 ], [ %14, %12 ]
  %18 = phi ptr [ %.pre.i, %15 ], [ %13, %12 ]
  %19 = icmp ult ptr %18, %17
  br i1 %19, label %avio_r8.exit, label %avio_r8.exit.thread

avio_r8.exit.thread:                              ; preds = %16
  %20 = and i64 %indvars.iv, 4294967295
  %21 = getelementptr inbounds nuw i8, ptr %2, i64 %20
  store i8 0, ptr %21, align 1, !tbaa !33
  br label %.loopexit33

avio_r8.exit:                                     ; preds = %16
  %22 = getelementptr inbounds nuw i8, ptr %18, i64 1
  store ptr %22, ptr %10, align 8, !tbaa !16
  %23 = load i8, ptr %18, align 1, !tbaa !33
  %24 = getelementptr inbounds nuw i8, ptr %2, i64 %indvars.iv
  store i8 %23, ptr %24, align 1, !tbaa !33
  %.not23 = icmp eq i8 %23, 0
  br i1 %.not23, label %.loopexit33, label %26

.loopexit33:                                      ; preds = %avio_r8.exit, %avio_r8.exit.thread
  %.03845 = trunc i64 %indvars.iv to i32
  %25 = add nuw nsw i32 %.03845, 1
  br label %.loopexit

26:                                               ; preds = %avio_r8.exit
  %indvars.iv.next = add nuw nsw i64 %indvars.iv, 1
  %exitcond.not = icmp eq i64 %indvars.iv.next, %wide.trip.count
  br i1 %exitcond.not, label %._crit_edge, label %12, !llvm.loop !61

._crit_edge:                                      ; preds = %26, %6
  %.0.lcssa = phi i32 [ 0, %6 ], [ %8, %26 ]
  %27 = zext nneg i32 %.0.lcssa to i64
  %28 = getelementptr inbounds nuw i8, ptr %2, i64 %27
  store i8 0, ptr %28, align 1, !tbaa !33
  %29 = icmp slt i32 %.0.lcssa, %1
  br i1 %29, label %.lr.ph41, label %.loopexit

.lr.ph41:                                         ; preds = %._crit_edge
  %30 = getelementptr inbounds nuw i8, ptr %0, i64 24
  %31 = getelementptr inbounds nuw i8, ptr %0, i64 32
  %.pre = load ptr, ptr %30, align 8, !tbaa !16
  %.pre48 = load ptr, ptr %31, align 8, !tbaa !19
  br label %32

32:                                               ; preds = %.lr.ph41, %43
  %33 = phi ptr [ %.pre48, %.lr.ph41 ], [ %37, %43 ]
  %34 = phi ptr [ %.pre, %.lr.ph41 ], [ %40, %43 ]
  %.139 = phi i32 [ %.0.lcssa, %.lr.ph41 ], [ %44, %43 ]
  %.not.i24 = icmp ult ptr %34, %33
  br i1 %.not.i24, label %36, label %35

35:                                               ; preds = %32
  tail call fastcc void @fill_buffer(ptr noundef nonnull %0)
  %.pre.i25 = load ptr, ptr %30, align 8, !tbaa !16
  %.pre7.i26 = load ptr, ptr %31, align 8, !tbaa !19
  br label %36

36:                                               ; preds = %35, %32
  %37 = phi ptr [ %.pre7.i26, %35 ], [ %33, %32 ]
  %38 = phi ptr [ %.pre.i25, %35 ], [ %34, %32 ]
  %39 = icmp ult ptr %38, %37
  br i1 %39, label %avio_r8.exit28, label %avio_r8.exit28.thread

avio_r8.exit28:                                   ; preds = %36
  %40 = getelementptr inbounds nuw i8, ptr %38, i64 1
  store ptr %40, ptr %30, align 8, !tbaa !16
  %41 = load i8, ptr %38, align 1, !tbaa !33
  %.not = icmp eq i8 %41, 0
  br i1 %.not, label %avio_r8.exit28.thread, label %43

avio_r8.exit28.thread:                            ; preds = %36, %avio_r8.exit28
  %42 = add nuw nsw i32 %.139, 1
  br label %.loopexit

43:                                               ; preds = %avio_r8.exit28
  %44 = add nuw nsw i32 %.139, 1
  %exitcond47.not = icmp eq i32 %44, %1
  br i1 %exitcond47.not, label %.loopexit, label %32, !llvm.loop !62

.loopexit:                                        ; preds = %43, %._crit_edge, %4, %avio_r8.exit28.thread, %.loopexit33
  %.020 = phi i32 [ %25, %.loopexit33 ], [ %42, %avio_r8.exit28.thread ], [ -22, %4 ], [ %1, %._crit_edge ], [ %1, %43 ]
  ret i32 %.020
}